target datalayout = "e-m:e-p270:32:32-p271:32:32-p272:64:64-i64:64-i128:128-f80:128-n8:16:32:64-S128"
target triple = "x86_64-unknown-linux-gnu"

%class.btRigidBody = type { %class.btCollisionObject.base, %class.btMatrix3x3, %class.btVector3, %class.btVector3, float, %class.btVector3, %class.btVector3, %class.btVector3, %class.btVector3, %class.btVector3, %class.btVector3, float, float, i8, float, float, float, float, float, float, ptr, %class.btAlignedObjectArray.0, i32, i32, %class.btVector3, %class.btVector3, %class.btVector3, %class.btVector3, %class.btVector3, %class.btVector3, i32, i32 }
%class.btCollisionObject.base = type <{ ptr, %class.btTransform, %class.btTransform, %class.btVector3, %class.btVector3, %class.btVector3, i32, float, ptr, ptr, ptr, ptr, i32, i32, i32, i32, i32, float, float, float, float, float, float, float, i32, [4 x i8], ptr, i32, i32, i32, float, float, float, i32, [4 x i8], %class.btAlignedObjectArray, i32, %class.btVector3 }>
%class.btTransform = type { %class.btMatrix3x3, %class.btVector3 }
%class.btAlignedObjectArray = type <{ %class.btAlignedAllocator, [3 x i8], i32, i32, [4 x i8], ptr, i8, [7 x i8] }>
%class.btAlignedAllocator = type { i8 }
%class.btMatrix3x3 = type { [3 x %class.btVector3] }
%class.btAlignedObjectArray.0 = type <{ %class.btAlignedAllocator.1, [3 x i8], i32, i32, [4 x i8], ptr, i8, [7 x i8] }>
%class.btAlignedAllocator.1 = type { i8 }
%class.btVector3 = type { [4 x float] }
%class.btCollisionObject = type <{ ptr, %class.btTransform, %class.btTransform, %class.btVector3, %class.btVector3, %class.btVector3, i32, float, ptr, ptr, ptr, ptr, i32, i32, i32, i32, i32, float, float, float, float, float, float, float, i32, [4 x i8], ptr, i32, i32, i32, float, float, float, i32, [4 x i8], %class.btAlignedObjectArray, i32, %class.btVector3, [4 x i8] }>

; Function Attrs: mustprogress nounwind uwtable
define linkonce_odr dso_local void @_ZN9btVector3C2ERKfS1_S1_(ptr noundef nonnull align 4 dereferenceable(16) %this, ptr noundef nonnull align 4 dereferenceable(4) %_x, ptr noundef nonnull align 4 dereferenceable(4) %_y, ptr noundef nonnull align 4 dereferenceable(4) %_z) unnamed_addr #1 comdat align 2 {
entry:
  %this.addr = alloca ptr, align 8
  %_x.addr = alloca ptr, align 8
  %_y.addr = alloca ptr, align 8
  %_z.addr = alloca ptr, align 8
  store ptr %this, ptr %this.addr, align 8
  store ptr %_x, ptr %_x.addr, align 8
  store ptr %_y, ptr %_y.addr, align 8
  store ptr %_z, ptr %_z.addr, align 8
  %this1 = load ptr, ptr %this.addr, align 8
  %0 = load ptr, ptr %_x.addr, align 8
  %1 = load float, ptr %0, align 4
  %m_floats = getelementptr inbounds %class.btVector3, ptr %this1, i32 0, i32 0
  %arrayidx = getelementptr inbounds [4 x float], ptr %m_floats, i64 0, i64 0
  store float %1, ptr %arrayidx, align 4
  %2 = load ptr, ptr %_y.addr, align 8
  %3 = load float, ptr %2, align 4
  %m_floats2 = getelementptr inbounds %class.btVector3, ptr %this1, i32 0, i32 0
  %arrayidx3 = getelementptr inbounds [4 x float], ptr %m_floats2, i64 0, i64 1
  store float %3, ptr %arrayidx3, align 4
  %4 = load ptr, ptr %_z.addr, align 8
  %5 = load float, ptr %4, align 4
  %m_floats4 = getelementptr inbounds %class.btVector3, ptr %this1, i32 0, i32 0
  %arrayidx5 = getelementptr inbounds [4 x float], ptr %m_floats4, i64 0, i64 2
  store float %5, ptr %arrayidx5, align 4
  %m_floats6 = getelementptr inbounds %class.btVector3, ptr %this1, i32 0, i32 0
  %arrayidx7 = getelementptr inbounds [4 x float], ptr %m_floats6, i64 0, i64 3
  store float 0.000000e+00, ptr %arrayidx7, align 4
  ret void
}

; Function Attrs: mustprogress uwtable
define linkonce_odr dso_local { <2 x float>, <2 x float> } @_ZmlRK9btVector3RKf(ptr noundef nonnull align 4 dereferenceable(16) %v, ptr noundef nonnull align 4 dereferenceable(4) %s) #2 comdat {
entry:
  %retval = alloca %class.btVector3, align 4
  %v.addr = alloca ptr, align 8
  %s.addr = alloca ptr, align 8
  %ref.tmp = alloca float, align 4
  %ref.tmp1 = alloca float, align 4
  %ref.tmp5 = alloca float, align 4
  store ptr %v, ptr %v.addr, align 8
  store ptr %s, ptr %s.addr, align 8
  %0 = load ptr, ptr %v.addr, align 8
  %m_floats = getelementptr inbounds %class.btVector3, ptr %0, i32 0, i32 0
  %arrayidx = getelementptr inbounds [4 x float], ptr %m_floats, i64 0, i64 0
  %1 = load float, ptr %arrayidx, align 4
  %2 = load ptr, ptr %s.addr, align 8
  %3 = load float, ptr %2, align 4
  %mul = fmul float %1, %3
  store float %mul, ptr %ref.tmp, align 4
  %4 = load ptr, ptr %v.addr, align 8
  %m_floats2 = getelementptr inbounds %class.btVector3, ptr %4, i32 0, i32 0
  %arrayidx3 = getelementptr inbounds [4 x float], ptr %m_floats2, i64 0, i64 1
  %5 = load float, ptr %arrayidx3, align 4
  %6 = load ptr, ptr %s.addr, align 8
  %7 = load float, ptr %6, align 4
  %mul4 = fmul float %5, %7
  store float %mul4, ptr %ref.tmp1, align 4
  %8 = load ptr, ptr %v.addr, align 8
  %m_floats6 = getelementptr inbounds %class.btVector3, ptr %8, i32 0, i32 0
  %arrayidx7 = getelementptr inbounds [4 x float], ptr %m_floats6, i64 0, i64 2
  %9 = load float, ptr %arrayidx7, align 4
  %10 = load ptr, ptr %s.addr, align 8
  %11 = load float, ptr %10, align 4
  %mul8 = fmul float %9, %11
  store float %mul8, ptr %ref.tmp5, align 4
  call void @_ZN9btVector3C2ERKfS1_S1_(ptr noundef nonnull align 4 dereferenceable(16) %retval, ptr noundef nonnull align 4 dereferenceable(4) %ref.tmp, ptr noundef nonnull align 4 dereferenceable(4) %ref.tmp1, ptr noundef nonnull align 4 dereferenceable(4) %ref.tmp5)
  %coerce.dive = getelementptr inbounds %class.btVector3, ptr %retval, i32 0, i32 0
  %12 = load { <2 x float>, <2 x float> }, ptr %coerce.dive, align 4
  ret { <2 x float>, <2 x float> } %12
}

; Function Attrs: mustprogress nounwind uwtable
define linkonce_odr dso_local void @_ZN9btVector38setValueERKfS1_S1_(ptr noundef nonnull align 4 dereferenceable(16) %this, ptr noundef nonnull align 4 dereferenceable(4) %_x, ptr noundef nonnull align 4 dereferenceable(4) %_y, ptr noundef nonnull align 4 dereferenceable(4) %_z) #1 comdat align 2 {
entry:
  %this.addr = alloca ptr, align 8
  %_x.addr = alloca ptr, align 8
  %_y.addr = alloca ptr, align 8
  %_z.addr = alloca ptr, align 8
  store ptr %this, ptr %this.addr, align 8
  store ptr %_x, ptr %_x.addr, align 8
  store ptr %_y, ptr %_y.addr, align 8
  store ptr %_z, ptr %_z.addr, align 8
  %this1 = load ptr, ptr %this.addr, align 8
  %0 = load ptr, ptr %_x.addr, align 8
  %1 = load float, ptr %0, align 4
  %m_floats = getelementptr inbounds %class.btVector3, ptr %this1, i32 0, i32 0
  %arrayidx = getelementptr inbounds [4 x float], ptr %m_floats, i64 0, i64 0
  store float %1, ptr %arrayidx, align 4
  %2 = load ptr, ptr %_y.addr, align 8
  %3 = load float, ptr %2, align 4
  %m_floats2 = getelementptr inbounds %class.btVector3, ptr %this1, i32 0, i32 0
  %arrayidx3 = getelementptr inbounds [4 x float], ptr %m_floats2, i64 0, i64 1
  store float %3, ptr %arrayidx3, align 4
  %4 = load ptr, ptr %_z.addr, align 8
  %5 = load float, ptr %4, align 4
  %m_floats4 = getelementptr inbounds %class.btVector3, ptr %this1, i32 0, i32 0
  %arrayidx5 = getelementptr inbounds [4 x float], ptr %m_floats4, i64 0, i64 2
  store float %5, ptr %arrayidx5, align 4
  %m_floats6 = getelementptr inbounds %class.btVector3, ptr %this1, i32 0, i32 0
  %arrayidx7 = getelementptr inbounds [4 x float], ptr %m_floats6, i64 0, i64 3
  store float 0.000000e+00, ptr %arrayidx7, align 4
  ret void
}

; Function Attrs: mustprogress nounwind uwtable
define linkonce_odr dso_local noundef nonnull align 4 dereferenceable(4) ptr @_ZNK9btVector31zEv(ptr noundef nonnull align 4 dereferenceable(16) %this) #1 comdat align 2 {
entry:
  %this.addr = alloca ptr, align 8
  store ptr %this, ptr %this.addr, align 8
  %this1 = load ptr, ptr %this.addr, align 8
  %m_floats = getelementptr inbounds %class.btVector3, ptr %this1, i32 0, i32 0
  %arrayidx = getelementptr inbounds [4 x float], ptr %m_floats, i64 0, i64 2
  ret ptr %arrayidx
}

; Function Attrs: mustprogress nounwind uwtable
define linkonce_odr dso_local noundef nonnull align 4 dereferenceable(4) ptr @_ZNK9btVector31yEv(ptr noundef nonnull align 4 dereferenceable(16) %this) #1 comdat align 2 {
entry:
  %this.addr = alloca ptr, align 8
  store ptr %this, ptr %this.addr, align 8
  %this1 = load ptr, ptr %this.addr, align 8
  %m_floats = getelementptr inbounds %class.btVector3, ptr %this1, i32 0, i32 0
  %arrayidx = getelementptr inbounds [4 x float], ptr %m_floats, i64 0, i64 1
  ret ptr %arrayidx
}

; Function Attrs: mustprogress nounwind uwtable
define linkonce_odr dso_local noundef nonnull align 4 dereferenceable(4) ptr @_ZNK9btVector31xEv(ptr noundef nonnull align 4 dereferenceable(16) %this) #1 comdat align 2 {
entry:
  %this.addr = alloca ptr, align 8
  store ptr %this, ptr %this.addr, align 8
  %this1 = load ptr, ptr %this.addr, align 8
  %m_floats = getelementptr inbounds %class.btVector3, ptr %this1, i32 0, i32 0
  %arrayidx = getelementptr inbounds [4 x float], ptr %m_floats, i64 0, i64 0
  ret ptr %arrayidx
}

; Function Attrs: mustprogress uwtable
define linkonce_odr dso_local { <2 x float>, <2 x float> } @_ZmlRKfRK9btVector3(ptr noundef nonnull align 4 dereferenceable(4) %s, ptr noundef nonnull align 4 dereferenceable(16) %v) #4 comdat {
entry:
  %retval = alloca %class.btVector3, align 4
  %s.addr = alloca ptr, align 8
  %v.addr = alloca ptr, align 8
  store ptr %s, ptr %s.addr, align 8
  store ptr %v, ptr %v.addr, align 8
  %0 = load ptr, ptr %v.addr, align 8
  %1 = load ptr, ptr %s.addr, align 8
  %call = call { <2 x float>, <2 x float> } @_ZmlRK9btVector3RKf(ptr noundef nonnull align 4 dereferenceable(16) %0, ptr noundef nonnull align 4 dereferenceable(4) %1)
  %coerce.dive = getelementptr inbounds %class.btVector3, ptr %retval, i32 0, i32 0
  %2 = getelementptr inbounds { <2 x float>, <2 x float> }, ptr %coerce.dive, i32 0, i32 0
  %3 = extractvalue { <2 x float>, <2 x float> } %call, 0
  store <2 x float> %3, ptr %2, align 4
  %4 = getelementptr inbounds { <2 x float>, <2 x float> }, ptr %coerce.dive, i32 0, i32 1
  %5 = extractvalue { <2 x float>, <2 x float> } %call, 1
  store <2 x float> %5, ptr %4, align 4
  %coerce.dive1 = getelementptr inbounds %class.btVector3, ptr %retval, i32 0, i32 0
  %6 = load { <2 x float>, <2 x float> }, ptr %coerce.dive1, align 4
  ret { <2 x float>, <2 x float> } %6
}

; Function Attrs: mustprogress uwtable
define dso_local void @_ZN11btRigidBody12setMassPropsEfRK9btVector3(ptr noundef nonnull align 8 dereferenceable(744) %this, float noundef %mass, ptr noundef nonnull align 4 dereferenceable(16) %inertia) #4 align 2 {
entry:
  %this.addr = alloca ptr, align 8
  %mass.addr = alloca float, align 4
  %inertia.addr = alloca ptr, align 8
  %ref.tmp = alloca %class.btVector3, align 4
  %ref.tmp4 = alloca float, align 4
  %ref.tmp9 = alloca float, align 4
  %ref.tmp18 = alloca float, align 4
  %ref.tmp27 = alloca %class.btVector3, align 4
  store ptr %this, ptr %this.addr, align 8
  store float %mass, ptr %mass.addr, align 4
  store ptr %inertia, ptr %inertia.addr, align 8
  %this1 = load ptr, ptr %this.addr, align 8
  %0 = load float, ptr %mass.addr, align 4
  %cmp = fcmp oeq float %0, 0.000000e+00
  br i1 %cmp, label %if.then, label %if.else

if.then:                                          ; preds = %entry
  %m_collisionFlags = getelementptr inbounds %class.btCollisionObject, ptr %this1, i32 0, i32 12
  %1 = load i32, ptr %m_collisionFlags, align 8
  %or = or i32 %1, 1
  store i32 %or, ptr %m_collisionFlags, align 8
  %m_inverseMass = getelementptr inbounds %class.btRigidBody, ptr %this1, i32 0, i32 4
  store float 0.000000e+00, ptr %m_inverseMass, align 4
  br label %if.end

if.else:                                          ; preds = %entry
  %m_collisionFlags2 = getelementptr inbounds %class.btCollisionObject, ptr %this1, i32 0, i32 12
  %2 = load i32, ptr %m_collisionFlags2, align 8
  %and = and i32 %2, -2
  store i32 %and, ptr %m_collisionFlags2, align 8
  %3 = load float, ptr %mass.addr, align 4
  %div = fdiv float 1.000000e+00, %3
  %m_inverseMass3 = getelementptr inbounds %class.btRigidBody, ptr %this1, i32 0, i32 4
  store float %div, ptr %m_inverseMass3, align 4
  br label %if.end

if.end:                                           ; preds = %if.else, %if.then
  %m_gravity_acceleration = getelementptr inbounds %class.btRigidBody, ptr %this1, i32 0, i32 7
  %call = call { <2 x float>, <2 x float> } @_ZmlRKfRK9btVector3(ptr noundef nonnull align 4 dereferenceable(4) %mass.addr, ptr noundef nonnull align 4 dereferenceable(16) %m_gravity_acceleration)
  %coerce.dive = getelementptr inbounds %class.btVector3, ptr %ref.tmp, i32 0, i32 0
  %4 = getelementptr inbounds { <2 x float>, <2 x float> }, ptr %coerce.dive, i32 0, i32 0
  %5 = extractvalue { <2 x float>, <2 x float> } %call, 0
  store <2 x float> %5, ptr %4, align 4
  %6 = getelementptr inbounds { <2 x float>, <2 x float> }, ptr %coerce.dive, i32 0, i32 1
  %7 = extractvalue { <2 x float>, <2 x float> } %call, 1
  store <2 x float> %7, ptr %6, align 4
  %m_gravity = getelementptr inbounds %class.btRigidBody, ptr %this1, i32 0, i32 6
  call void @llvm.memcpy.p0.p0.i64(ptr align 8 %m_gravity, ptr align 4 %ref.tmp, i64 16, i1 false)
  %m_invInertiaLocal = getelementptr inbounds %class.btRigidBody, ptr %this1, i32 0, i32 8
  %8 = load ptr, ptr %inertia.addr, align 8
  %call5 = call noundef nonnull align 4 dereferenceable(4) ptr @_ZNK9btVector31xEv(ptr noundef nonnull align 4 dereferenceable(16) %8)
  %9 = load float, ptr %call5, align 4
  %cmp6 = fcmp une float %9, 0.000000e+00
  br i1 %cmp6, label %cond.true, label %cond.false

cond.true:                                        ; preds = %if.end
  %10 = load ptr, ptr %inertia.addr, align 8
  %call7 = call noundef nonnull align 4 dereferenceable(4) ptr @_ZNK9btVector31xEv(ptr noundef nonnull align 4 dereferenceable(16) %10)
  %11 = load float, ptr %call7, align 4
  %div8 = fdiv float 1.000000e+00, %11
  br label %cond.end

cond.false:                                       ; preds = %if.end
  br label %cond.end

cond.end:                                         ; preds = %cond.false, %cond.true
  %cond = phi float [ %div8, %cond.true ], [ 0.000000e+00, %cond.false ]
  store float %cond, ptr %ref.tmp4, align 4
  %12 = load ptr, ptr %inertia.addr, align 8
  %call10 = call noundef nonnull align 4 dereferenceable(4) ptr @_ZNK9btVector31yEv(ptr noundef nonnull align 4 dereferenceable(16) %12)
  %13 = load float, ptr %call10, align 4
  %cmp11 = fcmp une float %13, 0.000000e+00
  br i1 %cmp11, label %cond.true12, label %cond.false15

cond.true12:                                      ; preds = %cond.end
  %14 = load ptr, ptr %inertia.addr, align 8
  %call13 = call noundef nonnull align 4 dereferenceable(4) ptr @_ZNK9btVector31yEv(ptr noundef nonnull align 4 dereferenceable(16) %14)
  %15 = load float, ptr %call13, align 4
  %div14 = fdiv float 1.000000e+00, %15
  br label %cond.end16

cond.false15:                                     ; preds = %cond.end
  br label %cond.end16

cond.end16:                                       ; preds = %cond.false15, %cond.true12
  %cond17 = phi float [ %div14, %cond.true12 ], [ 0.000000e+00, %cond.false15 ]
  store float %cond17, ptr %ref.tmp9, align 4
  %16 = load ptr, ptr %inertia.addr, align 8
  %call19 = call noundef nonnull align 4 dereferenceable(4) ptr @_ZNK9btVector31zEv(ptr noundef nonnull align 4 dereferenceable(16) %16)
  %17 = load float, ptr %call19, align 4
  %cmp20 = fcmp une float %17, 0.000000e+00
  br i1 %cmp20, label %cond.true21, label %cond.false24

cond.true21:                                      ; preds = %cond.end16
  %18 = load ptr, ptr %inertia.addr, align 8
  %call22 = call noundef nonnull align 4 dereferenceable(4) ptr @_ZNK9btVector31zEv(ptr noundef nonnull align 4 dereferenceable(16) %18)
  %19 = load float, ptr %call22, align 4
  %div23 = fdiv float 1.000000e+00, %19
  br label %cond.end25

cond.false24:                                     ; preds = %cond.end16
  br label %cond.end25

cond.end25:                                       ; preds = %cond.false24, %cond.true21
  %cond26 = phi float [ %div23, %cond.true21 ], [ 0.000000e+00, %cond.false24 ]
  store float %cond26, ptr %ref.tmp18, align 4
  call void @_ZN9btVector38setValueERKfS1_S1_(ptr noundef nonnull align 4 dereferenceable(16) %m_invInertiaLocal, ptr noundef nonnull align 4 dereferenceable(4) %ref.tmp4, ptr noundef nonnull align 4 dereferenceable(4) %ref.tmp9, ptr noundef nonnull align 4 dereferenceable(4) %ref.tmp18)
  %m_linearFactor = getelementptr inbounds %class.btRigidBody, ptr %this1, i32 0, i32 5
  %m_inverseMass28 = getelementptr inbounds %class.btRigidBody, ptr %this1, i32 0, i32 4
  %call29 = call { <2 x float>, <2 x float> } @_ZmlRK9btVector3RKf(ptr noundef nonnull align 4 dereferenceable(16) %m_linearFactor, ptr noundef nonnull align 4 dereferenceable(4) %m_inverseMass28)
  %coerce.dive30 = getelementptr inbounds %class.btVector3, ptr %ref.tmp27, i32 0, i32 0
  %20 = getelementptr inbounds { <2 x float>, <2 x float> }, ptr %coerce.dive30, i32 0, i32 0
  %21 = extractvalue { <2 x float>, <2 x float> } %call29, 0
  store <2 x float> %21, ptr %20, align 4
  %22 = getelementptr inbounds { <2 x float>, <2 x float> }, ptr %coerce.dive30, i32 0, i32 1
  %23 = extractvalue { <2 x float>, <2 x float> } %call29, 1
  store <2 x float> %23, ptr %22, align 4
  %m_invMass = getelementptr inbounds %class.btRigidBody, ptr %this1, i32 0, i32 27
  call void @llvm.memcpy.p0.p0.i64(ptr align 8 %m_invMass, ptr align 4 %ref.tmp27, i64 16, i1 false)
  ret void
}