; Function Attrs: mustprogress nofree norecurse nosync nounwind willreturn memory(argmem: readwrite) uwtable
define dso_local void @_ZN11btRigidBody12setMassPropsEfRK9btVector3(ptr nocapture noundef nonnull align 8 dereferenceable(744) %this, float noundef %mass, ptr nocapture noundef nonnull readonly align 4 dereferenceable(16) %inertia) local_unnamed_addr #6 align 2 {
entry:
  %cmp = fcmp oeq float %mass, 0.000000e+00
  %m_collisionFlags = getelementptr inbounds i8, ptr %this, i64 224
  %0 = load i32, ptr %m_collisionFlags, align 8
  br i1 %cmp, label %if.then, label %if.else

if.then:                                          ; preds = %entry
  %or = or i32 %0, 1
  store i32 %or, ptr %m_collisionFlags, align 8
  br label %if.end

if.else:                                          ; preds = %entry
  %and = and i32 %0, -2
  store i32 %and, ptr %m_collisionFlags, align 8
  %div = fdiv float 1.000000e+00, %mass
  br label %if.end

if.end:                                           ; preds = %if.else, %if.then
  %div.sink = phi float [ 0.000000e+00, %if.then ], [ %div, %if.else ]
  %1 = getelementptr inbounds i8, ptr %this, i64 452
  store float %div.sink, ptr %1, align 4
  %m_gravity_acceleration = getelementptr inbounds i8, ptr %this, i64 488
  %2 = load <2 x float>, ptr %m_gravity_acceleration, align 8
  %3 = insertelement <2 x float> poison, float %mass, i64 0
  %4 = shufflevector <2 x float> %3, <2 x float> poison, <2 x i32> zeroinitializer
  %5 = fmul <2 x float> %2, %4
  %arrayidx7.i.i = getelementptr inbounds i8, ptr %this, i64 496
  %6 = load float, ptr %arrayidx7.i.i, align 8
  %mul8.i.i = fmul float %6, %mass
  %retval.sroa.3.12.vec.insert.i.i = insertelement <2 x float> <float poison, float 0.000000e+00>, float %mul8.i.i, i64 0
  %m_gravity = getelementptr inbounds i8, ptr %this, i64 472
  store <2 x float> %5, ptr %m_gravity, align 8
  %ref.tmp.sroa.2.0.m_gravity.sroa_idx = getelementptr inbounds i8, ptr %this, i64 480
  store <2 x float> %retval.sroa.3.12.vec.insert.i.i, ptr %ref.tmp.sroa.2.0.m_gravity.sroa_idx, align 8
  %arrayidx.i7 = getelementptr inbounds i8, ptr %inertia, i64 8
  %7 = load float, ptr %arrayidx.i7, align 4
  %cmp20 = fcmp une float %7, 0.000000e+00
  %div23 = fdiv float 1.000000e+00, %7
  %cond26 = select i1 %cmp20, float %div23, float 0.000000e+00
  %m_invInertiaLocal = getelementptr inbounds i8, ptr %this, i64 504
  %8 = load <2 x float>, ptr %inertia, align 4
  %9 = fcmp une <2 x float> %8, zeroinitializer
  %10 = fdiv <2 x float> <float 1.000000e+00, float 1.000000e+00>, %8
  %11 = select <2 x i1> %9, <2 x float> %10, <2 x float> zeroinitializer
  store <2 x float> %11, ptr %m_invInertiaLocal, align 8
  %arrayidx5.i = getelementptr inbounds i8, ptr %this, i64 512
  store float %cond26, ptr %arrayidx5.i, align 8
  %arrayidx7.i = getelementptr inbounds i8, ptr %this, i64 516
  store float 0.000000e+00, ptr %arrayidx7.i, align 4
  %m_linearFactor = getelementptr inbounds i8, ptr %this, i64 456
  %12 = load <2 x float>, ptr %m_linearFactor, align 8
  %13 = insertelement <2 x float> poison, float %div.sink, i64 0
  %14 = shufflevector <2 x float> %13, <2 x float> poison, <2 x i32> zeroinitializer
  %15 = fmul <2 x float> %12, %14
  %arrayidx7.i10 = getelementptr inbounds i8, ptr %this, i64 464
  %16 = load float, ptr %arrayidx7.i10, align 8
  %mul8.i = fmul float %div.sink, %16
  %retval.sroa.3.12.vec.insert.i = insertelement <2 x float> <float poison, float 0.000000e+00>, float %mul8.i, i64 0
  %m_invMass = getelementptr inbounds i8, ptr %this, i64 688
  store <2 x float> %15, ptr %m_invMass, align 8
  %ref.tmp27.sroa.2.0.m_invMass.sroa_idx = getelementptr inbounds i8, ptr %this, i64 696
  store <2 x float> %retval.sroa.3.12.vec.insert.i, ptr %ref.tmp27.sroa.2.0.m_invMass.sroa_idx, align 8
  ret void
}